target datalayout = "e-m:e-p270:32:32-p271:32:32-p272:64:64-i64:64-i128:128-f80:128-n8:16:32:64-S128"
target triple = "x86_64-pc-linux-gnu"

%struct.Vec_Ptr_t_ = type { i32, i32, ptr }
%struct.Abc_Obj_t_ = type { ptr, ptr, i32, i32, %struct.Vec_Int_t_, %struct.Vec_Int_t_, %union.anon, %union.anon.0 }
%struct.Vec_Int_t_ = type { i32, i32, ptr }
%union.anon = type { ptr }
%union.anon.0 = type { ptr }
%struct.Abc_Ntk_t_ = type { i32, i32, ptr, ptr, ptr, ptr, ptr, ptr, ptr, ptr, ptr, ptr, ptr, [11 x i32], i32, i32, i32, i32, ptr, i32, ptr, ptr, i32, i32, i32, double, i32, %struct.Vec_Int_t_, ptr, ptr, ptr, ptr, ptr, float, i32, ptr, ptr, ptr, ptr, ptr, ptr, ptr, ptr, ptr, ptr, ptr, ptr, ptr, ptr, ptr, ptr, ptr, ptr, ptr, ptr, ptr }

; Function Attrs: nounwind uwtable
define internal i32 @Vec_IntEntry(ptr noundef %0, i32 noundef %1) #0 {
  %3 = alloca ptr, align 8
  %4 = alloca i32, align 4
  store ptr %0, ptr %3, align 8
  store i32 %1, ptr %4, align 4
  %5 = load ptr, ptr %3, align 8
  %6 = getelementptr inbounds %struct.Vec_Int_t_, ptr %5, i32 0, i32 2
  %7 = load ptr, ptr %6, align 8
  %8 = load i32, ptr %4, align 4
  %9 = sext i32 %8 to i64
  %10 = getelementptr inbounds i32, ptr %7, i64 %9
  %11 = load i32, ptr %10, align 4
  ret i32 %11
}

; Function Attrs: nounwind uwtable
define internal void @Vec_PtrGrow(ptr noundef %0, i32 noundef %1) #0 {
  %3 = alloca ptr, align 8
  %4 = alloca i32, align 4
  store ptr %0, ptr %3, align 8
  store i32 %1, ptr %4, align 4
  %5 = load ptr, ptr %3, align 8
  %6 = getelementptr inbounds %struct.Vec_Ptr_t_, ptr %5, i32 0, i32 0
  %7 = load i32, ptr %6, align 8
  %8 = load i32, ptr %4, align 4
  %9 = icmp sge i32 %7, %8
  br i1 %9, label %10, label %11

10:                                               ; preds = %2
  br label %36

11:                                               ; preds = %2
  %12 = load ptr, ptr %3, align 8
  %13 = getelementptr inbounds %struct.Vec_Ptr_t_, ptr %12, i32 0, i32 2
  %14 = load ptr, ptr %13, align 8
  %15 = icmp ne ptr %14, null
  br i1 %15, label %16, label %24

16:                                               ; preds = %11
  %17 = load ptr, ptr %3, align 8
  %18 = getelementptr inbounds %struct.Vec_Ptr_t_, ptr %17, i32 0, i32 2
  %19 = load ptr, ptr %18, align 8
  %20 = load i32, ptr %4, align 4
  %21 = sext i32 %20 to i64
  %22 = mul i64 8, %21
  %23 = call ptr @realloc(ptr noundef %19, i64 noundef %22) #7
  br label %29

24:                                               ; preds = %11
  %25 = load i32, ptr %4, align 4
  %26 = sext i32 %25 to i64
  %27 = mul i64 8, %26
  %28 = call noalias ptr @malloc(i64 noundef %27) #5
  br label %29

29:                                               ; preds = %24, %16
  %30 = phi ptr [ %23, %16 ], [ %28, %24 ]
  %31 = load ptr, ptr %3, align 8
  %32 = getelementptr inbounds %struct.Vec_Ptr_t_, ptr %31, i32 0, i32 2
  store ptr %30, ptr %32, align 8
  %33 = load i32, ptr %4, align 4
  %34 = load ptr, ptr %3, align 8
  %35 = getelementptr inbounds %struct.Vec_Ptr_t_, ptr %34, i32 0, i32 0
  store i32 %33, ptr %35, align 8
  br label %36

36:                                               ; preds = %29, %10
  ret void
}

; Function Attrs: nounwind uwtable
define internal i32 @Vec_IntGetEntry(ptr noundef %0, i32 noundef %1) #0 {
  %3 = alloca ptr, align 8
  %4 = alloca i32, align 4
  store ptr %0, ptr %3, align 8
  store i32 %1, ptr %4, align 4
  %5 = load ptr, ptr %3, align 8
  %6 = load i32, ptr %4, align 4
  %7 = add nsw i32 %6, 1
  call void @Vec_IntFillExtra(ptr noundef %5, i32 noundef %7, i32 noundef 0)
  %8 = load ptr, ptr %3, align 8
  %9 = load i32, ptr %4, align 4
  %10 = call i32 @Vec_IntEntry(ptr noundef %8, i32 noundef %9)
  ret i32 %10
}

; Function Attrs: nounwind uwtable
define internal i32 @Abc_ObjId(ptr noundef %0) #0 {
  %2 = alloca ptr, align 8
  store ptr %0, ptr %2, align 8
  %3 = load ptr, ptr %2, align 8
  %4 = getelementptr inbounds %struct.Abc_Obj_t_, ptr %3, i32 0, i32 2
  %5 = load i32, ptr %4, align 8
  ret i32 %5
}

; Function Attrs: nounwind uwtable
define internal void @Vec_PtrPush(ptr noundef %0, ptr noundef %1) #0 {
  %3 = alloca ptr, align 8
  %4 = alloca ptr, align 8
  store ptr %0, ptr %3, align 8
  store ptr %1, ptr %4, align 8
  %5 = load ptr, ptr %3, align 8
  %6 = getelementptr inbounds %struct.Vec_Ptr_t_, ptr %5, i32 0, i32 1
  %7 = load i32, ptr %6, align 4
  %8 = load ptr, ptr %3, align 8
  %9 = getelementptr inbounds %struct.Vec_Ptr_t_, ptr %8, i32 0, i32 0
  %10 = load i32, ptr %9, align 8
  %11 = icmp eq i32 %7, %10
  br i1 %11, label %12, label %26

12:                                               ; preds = %2
  %13 = load ptr, ptr %3, align 8
  %14 = getelementptr inbounds %struct.Vec_Ptr_t_, ptr %13, i32 0, i32 0
  %15 = load i32, ptr %14, align 8
  %16 = icmp slt i32 %15, 16
  br i1 %16, label %17, label %19

17:                                               ; preds = %12
  %18 = load ptr, ptr %3, align 8
  call void @Vec_PtrGrow(ptr noundef %18, i32 noundef 16)
  br label %25

19:                                               ; preds = %12
  %20 = load ptr, ptr %3, align 8
  %21 = load ptr, ptr %3, align 8
  %22 = getelementptr inbounds %struct.Vec_Ptr_t_, ptr %21, i32 0, i32 0
  %23 = load i32, ptr %22, align 8
  %24 = mul nsw i32 2, %23
  call void @Vec_PtrGrow(ptr noundef %20, i32 noundef %24)
  br label %25

25:                                               ; preds = %19, %17
  br label %26

26:                                               ; preds = %25, %2
  %27 = load ptr, ptr %4, align 8
  %28 = load ptr, ptr %3, align 8
  %29 = getelementptr inbounds %struct.Vec_Ptr_t_, ptr %28, i32 0, i32 2
  %30 = load ptr, ptr %29, align 8
  %31 = load ptr, ptr %3, align 8
  %32 = getelementptr inbounds %struct.Vec_Ptr_t_, ptr %31, i32 0, i32 1
  %33 = load i32, ptr %32, align 4
  %34 = add nsw i32 %33, 1
  store i32 %34, ptr %32, align 4
  %35 = sext i32 %33 to i64
  %36 = getelementptr inbounds ptr, ptr %30, i64 %35
  store ptr %27, ptr %36, align 8
  ret void
}

; Function Attrs: nounwind uwtable
define internal ptr @Abc_ObjNtk(ptr noundef %0) #0 {
  %2 = alloca ptr, align 8
  store ptr %0, ptr %2, align 8
  %3 = load ptr, ptr %2, align 8
  %4 = getelementptr inbounds %struct.Abc_Obj_t_, ptr %3, i32 0, i32 0
  %5 = load ptr, ptr %4, align 8
  ret ptr %5
}

; Function Attrs: nounwind uwtable
define internal i32 @Abc_NodeTravId(ptr noundef %0) #0 {
  %2 = alloca ptr, align 8
  store ptr %0, ptr %2, align 8
  %3 = load ptr, ptr %2, align 8
  %4 = call ptr @Abc_ObjNtk(ptr noundef %3)
  %5 = getelementptr inbounds %struct.Abc_Ntk_t_, ptr %4, i32 0, i32 27
  %6 = load ptr, ptr %2, align 8
  %7 = call i32 @Abc_ObjId(ptr noundef %6)
  %8 = call i32 @Vec_IntGetEntry(ptr noundef %5, i32 noundef %7)
  ret i32 %8
}

; Function Attrs: nounwind uwtable
define internal i32 @Vec_PtrPushUnique(ptr noundef %0, ptr noundef %1) #0 {
  %3 = alloca i32, align 4
  %4 = alloca ptr, align 8
  %5 = alloca ptr, align 8
  %6 = alloca i32, align 4
  store ptr %0, ptr %4, align 8
  store ptr %1, ptr %5, align 8
  store i32 0, ptr %6, align 4
  br label %7

7:                                                ; preds = %25, %2
  %8 = load i32, ptr %6, align 4
  %9 = load ptr, ptr %4, align 8
  %10 = getelementptr inbounds %struct.Vec_Ptr_t_, ptr %9, i32 0, i32 1
  %11 = load i32, ptr %10, align 4
  %12 = icmp slt i32 %8, %11
  br i1 %12, label %13, label %28

13:                                               ; preds = %7
  %14 = load ptr, ptr %4, align 8
  %15 = getelementptr inbounds %struct.Vec_Ptr_t_, ptr %14, i32 0, i32 2
  %16 = load ptr, ptr %15, align 8
  %17 = load i32, ptr %6, align 4
  %18 = sext i32 %17 to i64
  %19 = getelementptr inbounds ptr, ptr %16, i64 %18
  %20 = load ptr, ptr %19, align 8
  %21 = load ptr, ptr %5, align 8
  %22 = icmp eq ptr %20, %21
  br i1 %22, label %23, label %24

23:                                               ; preds = %13
  store i32 1, ptr %3, align 4
  br label %31

24:                                               ; preds = %13
  br label %25

25:                                               ; preds = %24
  %26 = load i32, ptr %6, align 4
  %27 = add nsw i32 %26, 1
  store i32 %27, ptr %6, align 4
  br label %7, !llvm.loop !22

28:                                               ; preds = %7
  %29 = load ptr, ptr %4, align 8
  %30 = load ptr, ptr %5, align 8
  call void @Vec_PtrPush(ptr noundef %29, ptr noundef %30)
  store i32 0, ptr %3, align 4
  br label %31

31:                                               ; preds = %28, %23
  %32 = load i32, ptr %3, align 4
  ret i32 %32
}

; Function Attrs: nounwind uwtable
define internal i32 @Abc_NodeIsTravIdCurrent(ptr noundef %0) #0 {
  %2 = alloca ptr, align 8
  store ptr %0, ptr %2, align 8
  %3 = load ptr, ptr %2, align 8
  %4 = call i32 @Abc_NodeTravId(ptr noundef %3)
  %5 = load ptr, ptr %2, align 8
  %6 = call ptr @Abc_ObjNtk(ptr noundef %5)
  %7 = getelementptr inbounds %struct.Abc_Ntk_t_, ptr %6, i32 0, i32 26
  %8 = load i32, ptr %7, align 8
  %9 = icmp eq i32 %4, %8
  %10 = zext i1 %9 to i32
  ret i32 %10
}

; Function Attrs: nounwind uwtable
define internal ptr @Abc_ObjFanout(ptr noundef %0, i32 noundef %1) #0 {
  %3 = alloca ptr, align 8
  %4 = alloca i32, align 4
  store ptr %0, ptr %3, align 8
  store i32 %1, ptr %4, align 4
  %5 = load ptr, ptr %3, align 8
  %6 = getelementptr inbounds %struct.Abc_Obj_t_, ptr %5, i32 0, i32 0
  %7 = load ptr, ptr %6, align 8
  %8 = getelementptr inbounds %struct.Abc_Ntk_t_, ptr %7, i32 0, i32 5
  %9 = load ptr, ptr %8, align 8
  %10 = getelementptr inbounds %struct.Vec_Ptr_t_, ptr %9, i32 0, i32 2
  %11 = load ptr, ptr %10, align 8
  %12 = load ptr, ptr %3, align 8
  %13 = getelementptr inbounds %struct.Abc_Obj_t_, ptr %12, i32 0, i32 5
  %14 = getelementptr inbounds %struct.Vec_Int_t_, ptr %13, i32 0, i32 2
  %15 = load ptr, ptr %14, align 8
  %16 = load i32, ptr %4, align 4
  %17 = sext i32 %16 to i64
  %18 = getelementptr inbounds i32, ptr %15, i64 %17
  %19 = load i32, ptr %18, align 4
  %20 = sext i32 %19 to i64
  %21 = getelementptr inbounds ptr, ptr %11, i64 %20
  %22 = load ptr, ptr %21, align 8
  ret ptr %22
}

; Function Attrs: nounwind uwtable
define internal i32 @Abc_ObjFanoutNum(ptr noundef %0) #0 {
  %2 = alloca ptr, align 8
  store ptr %0, ptr %2, align 8
  %3 = load ptr, ptr %2, align 8
  %4 = getelementptr inbounds %struct.Abc_Obj_t_, ptr %3, i32 0, i32 5
  %5 = getelementptr inbounds %struct.Vec_Int_t_, ptr %4, i32 0, i32 1
  %6 = load i32, ptr %5, align 4
  ret i32 %6
}

; Function Attrs: nounwind uwtable
define void @Res_WinFinalizeRoots_rec(ptr noundef %0, ptr noundef %1) #0 {
  %3 = alloca ptr, align 8
  %4 = alloca ptr, align 8
  %5 = alloca ptr, align 8
  %6 = alloca i32, align 4
  store ptr %0, ptr %3, align 8
  store ptr %1, ptr %4, align 8
  store i32 0, ptr %6, align 4
  br label %7

7:                                                ; preds = %24, %2
  %8 = load i32, ptr %6, align 4
  %9 = load ptr, ptr %3, align 8
  %10 = call i32 @Abc_ObjFanoutNum(ptr noundef %9)
  %11 = icmp slt i32 %8, %10
  br i1 %11, label %12, label %16

12:                                               ; preds = %7
  %13 = load ptr, ptr %3, align 8
  %14 = load i32, ptr %6, align 4
  %15 = call ptr @Abc_ObjFanout(ptr noundef %13, i32 noundef %14)
  store ptr %15, ptr %5, align 8
  br label %16

16:                                               ; preds = %12, %7
  %17 = phi i1 [ false, %7 ], [ true, %12 ]
  br i1 %17, label %18, label %27

18:                                               ; preds = %16
  %19 = load ptr, ptr %5, align 8
  %20 = call i32 @Abc_NodeIsTravIdCurrent(ptr noundef %19)
  %21 = icmp ne i32 %20, 0
  br i1 %21, label %23, label %22

22:                                               ; preds = %18
  br label %27

23:                                               ; preds = %18
  br label %24

24:                                               ; preds = %23
  %25 = load i32, ptr %6, align 4
  %26 = add nsw i32 %25, 1
  store i32 %26, ptr %6, align 4
  br label %7, !llvm.loop !20

27:                                               ; preds = %22, %16
  %28 = load i32, ptr %6, align 4
  %29 = load ptr, ptr %3, align 8
  %30 = call i32 @Abc_ObjFanoutNum(ptr noundef %29)
  %31 = icmp slt i32 %28, %30
  br i1 %31, label %32, label %36

32:                                               ; preds = %27
  %33 = load ptr, ptr %4, align 8
  %34 = load ptr, ptr %3, align 8
  %35 = call i32 @Vec_PtrPushUnique(ptr noundef %33, ptr noundef %34)
  br label %55

36:                                               ; preds = %27
  store i32 0, ptr %6, align 4
  br label %37

37:                                               ; preds = %51, %36
  %38 = load i32, ptr %6, align 4
  %39 = load ptr, ptr %3, align 8
  %40 = call i32 @Abc_ObjFanoutNum(ptr noundef %39)
  %41 = icmp slt i32 %38, %40
  br i1 %41, label %42, label %46

42:                                               ; preds = %37
  %43 = load ptr, ptr %3, align 8
  %44 = load i32, ptr %6, align 4
  %45 = call ptr @Abc_ObjFanout(ptr noundef %43, i32 noundef %44)
  store ptr %45, ptr %5, align 8
  br label %46

46:                                               ; preds = %42, %37
  %47 = phi i1 [ false, %37 ], [ true, %42 ]
  br i1 %47, label %48, label %54

48:                                               ; preds = %46
  %49 = load ptr, ptr %5, align 8
  %50 = load ptr, ptr %4, align 8
  call void @Res_WinFinalizeRoots_rec(ptr noundef %49, ptr noundef %50)
  br label %51

51:                                               ; preds = %48
  %52 = load i32, ptr %6, align 4
  %53 = add nsw i32 %52, 1
  store i32 %53, ptr %6, align 4
  br label %37, !llvm.loop !21

54:                                               ; preds = %46
  br label %55

55:                                               ; preds = %54, %32
  ret void
}