; Function Attrs: nounwind uwtable
define void @Res_WinFinalizeRoots_rec(ptr noundef %0, ptr noundef captures(none) %1) local_unnamed_addr #2 {
  %3 = getelementptr i8, ptr %0, i64 44
  %.val1925 = load i32, ptr %3, align 4
  %4 = icmp sgt i32 %.val1925, 0
  br i1 %4, label %.lr.ph, label %.critedge

.lr.ph:                                           ; preds = %2
  %5 = getelementptr i8, ptr %0, i64 48
  br label %6

6:                                                ; preds = %.lr.ph, %23
  %indvars.iv = phi i64 [ 0, %.lr.ph ], [ %indvars.iv.next, %23 ]
  %.val22 = load ptr, ptr %0, align 8
  %.val23 = load ptr, ptr %5, align 8
  %7 = getelementptr i8, ptr %.val22, i64 32
  %.val22.val = load ptr, ptr %7, align 8
  %8 = getelementptr i8, ptr %.val22.val, i64 8
  %.val22.val.val = load ptr, ptr %8, align 8
  %9 = getelementptr inbounds nuw i32, ptr %.val23, i64 %indvars.iv
  %10 = load i32, ptr %9, align 4
  %11 = sext i32 %10 to i64
  %12 = getelementptr inbounds ptr, ptr %.val22.val.val, i64 %11
  %13 = load ptr, ptr %12, align 8
  %.val2.i = load ptr, ptr %13, align 8
  %14 = getelementptr i8, ptr %13, i64 16
  %.val3.i = load i32, ptr %14, align 8
  %15 = getelementptr inbounds nuw i8, ptr %.val2.i, i64 224
  %16 = add nsw i32 %.val3.i, 1
  tail call fastcc void @Vec_IntFillExtra(ptr noundef nonnull %15, i32 noundef %16)
  %17 = getelementptr i8, ptr %.val2.i, i64 232
  %.val.i.i.i = load ptr, ptr %17, align 8
  %18 = sext i32 %.val3.i to i64
  %19 = getelementptr inbounds i32, ptr %.val.i.i.i, i64 %18
  %20 = load i32, ptr %19, align 4
  %.val.i = load ptr, ptr %13, align 8
  %21 = getelementptr inbounds nuw i8, ptr %.val.i, i64 216
  %22 = load i32, ptr %21, align 8
  %.not = icmp eq i32 %20, %22
  %.val18.pre.pre = load i32, ptr %3, align 4
  br i1 %.not, label %23, label %.critedge.loopexit

23:                                               ; preds = %6
  %indvars.iv.next = add nuw nsw i64 %indvars.iv, 1
  %24 = sext i32 %.val18.pre.pre to i64
  %25 = icmp slt i64 %indvars.iv.next, %24
  br i1 %25, label %6, label %.critedge.loopexit, !llvm.loop !22

.critedge.loopexit:                               ; preds = %23, %6
  %.0.lcssa.ph.in = phi i64 [ %indvars.iv, %6 ], [ %indvars.iv.next, %23 ]
  %.0.lcssa.ph = trunc i64 %.0.lcssa.ph.in to i32
  br label %.critedge

.critedge:                                        ; preds = %.critedge.loopexit, %2
  %.val29 = phi i32 [ %.val1925, %2 ], [ %.val18.pre.pre, %.critedge.loopexit ]
  %.0.lcssa = phi i32 [ 0, %2 ], [ %.0.lcssa.ph, %.critedge.loopexit ]
  %26 = icmp slt i32 %.0.lcssa, %.val29
  br i1 %26, label %29, label %.preheader

.preheader:                                       ; preds = %.critedge
  %27 = icmp sgt i32 %.val29, 0
  br i1 %27, label %.lr.ph31, label %.critedge2

.lr.ph31:                                         ; preds = %.preheader
  %28 = getelementptr i8, ptr %0, i64 48
  br label %69

29:                                               ; preds = %.critedge
  %30 = getelementptr inbounds nuw i8, ptr %1, i64 4
  %31 = load i32, ptr %30, align 4
  %32 = icmp sgt i32 %31, 0
  br i1 %32, label %.lr.ph.i, label %._crit_edge.i

.lr.ph.i:                                         ; preds = %29
  %33 = getelementptr inbounds nuw i8, ptr %1, i64 8
  %34 = load ptr, ptr %33, align 8
  %wide.trip.count.i = zext nneg i32 %31 to i64
  br label %36

35:                                               ; preds = %36
  %indvars.iv.next.i = add nuw nsw i64 %indvars.iv.i, 1
  %exitcond.not.i = icmp eq i64 %indvars.iv.next.i, %wide.trip.count.i
  br i1 %exitcond.not.i, label %._crit_edge.i, label %36, !llvm.loop !23

36:                                               ; preds = %35, %.lr.ph.i
  %indvars.iv.i = phi i64 [ 0, %.lr.ph.i ], [ %indvars.iv.next.i, %35 ]
  %37 = getelementptr inbounds nuw ptr, ptr %34, i64 %indvars.iv.i
  %38 = load ptr, ptr %37, align 8
  %39 = icmp eq ptr %38, %0
  br i1 %39, label %.critedge2, label %35

._crit_edge.i:                                    ; preds = %35, %29
  %40 = load i32, ptr %1, align 8
  %41 = icmp eq i32 %31, %40
  br i1 %41, label %42, label %.Vec_PtrGrow.exit11_crit_edge.i.i

.Vec_PtrGrow.exit11_crit_edge.i.i:                ; preds = %._crit_edge.i
  %.phi.trans.insert.i.i = getelementptr inbounds nuw i8, ptr %1, i64 8
  %.pre.i.i = load ptr, ptr %.phi.trans.insert.i.i, align 8
  br label %Vec_PtrPush.exit.i

42:                                               ; preds = %._crit_edge.i
  %43 = icmp slt i32 %31, 16
  br i1 %43, label %44, label %52

44:                                               ; preds = %42
  %45 = getelementptr inbounds nuw i8, ptr %1, i64 8
  %46 = load ptr, ptr %45, align 8
  %.not9.i.i.i = icmp eq ptr %46, null
  br i1 %.not9.i.i.i, label %49, label %47

47:                                               ; preds = %44
  %48 = tail call dereferenceable_or_null(128) ptr @realloc(ptr noundef nonnull %46, i64 noundef 128) #10
  br label %Vec_PtrGrow.exit.i.i

49:                                               ; preds = %44
  %50 = tail call noalias dereferenceable_or_null(128) ptr @malloc(i64 noundef 128) #8
  br label %Vec_PtrGrow.exit.i.i

Vec_PtrGrow.exit.i.i:                             ; preds = %49, %47
  %51 = phi ptr [ %48, %47 ], [ %50, %49 ]
  store ptr %51, ptr %45, align 8
  store i32 16, ptr %1, align 8
  br label %Vec_PtrPush.exit.i

52:                                               ; preds = %42
  %53 = shl nuw nsw i32 %31, 1
  %54 = getelementptr inbounds nuw i8, ptr %1, i64 8
  %55 = load ptr, ptr %54, align 8
  %.not9.i10.i.i = icmp eq ptr %55, null
  %56 = zext nneg i32 %53 to i64
  %57 = shl nuw nsw i64 %56, 3
  br i1 %.not9.i10.i.i, label %60, label %58

58:                                               ; preds = %52
  %59 = tail call ptr @realloc(ptr noundef nonnull %55, i64 noundef %57) #10
  br label %62

60:                                               ; preds = %52
  %61 = tail call noalias ptr @malloc(i64 noundef %57) #8
  br label %62

62:                                               ; preds = %60, %58
  %63 = phi ptr [ %59, %58 ], [ %61, %60 ]
  store ptr %63, ptr %54, align 8
  store i32 %53, ptr %1, align 8
  br label %Vec_PtrPush.exit.i

Vec_PtrPush.exit.i:                               ; preds = %62, %Vec_PtrGrow.exit.i.i, %.Vec_PtrGrow.exit11_crit_edge.i.i
  %64 = phi ptr [ %.pre.i.i, %.Vec_PtrGrow.exit11_crit_edge.i.i ], [ %63, %62 ], [ %51, %Vec_PtrGrow.exit.i.i ]
  %65 = load i32, ptr %30, align 4
  %66 = add nsw i32 %65, 1
  store i32 %66, ptr %30, align 4
  %67 = sext i32 %65 to i64
  %68 = getelementptr inbounds ptr, ptr %64, i64 %67
  store ptr %0, ptr %68, align 8
  br label %.critedge2

69:                                               ; preds = %.lr.ph31, %69
  %indvars.iv34 = phi i64 [ 0, %.lr.ph31 ], [ %indvars.iv.next35, %69 ]
  %.val20 = load ptr, ptr %0, align 8
  %.val21 = load ptr, ptr %28, align 8
  %70 = getelementptr i8, ptr %.val20, i64 32
  %.val20.val = load ptr, ptr %70, align 8
  %71 = getelementptr i8, ptr %.val20.val, i64 8
  %.val20.val.val = load ptr, ptr %71, align 8
  %72 = getelementptr inbounds nuw i32, ptr %.val21, i64 %indvars.iv34
  %73 = load i32, ptr %72, align 4
  %74 = sext i32 %73 to i64
  %75 = getelementptr inbounds ptr, ptr %.val20.val.val, i64 %74
  %76 = load ptr, ptr %75, align 8
  tail call void @Res_WinFinalizeRoots_rec(ptr noundef %76, ptr noundef %1)
  %indvars.iv.next35 = add nuw nsw i64 %indvars.iv34, 1
  %.val = load i32, ptr %3, align 4
  %77 = sext i32 %.val to i64
  %78 = icmp slt i64 %indvars.iv.next35, %77
  br i1 %78, label %69, label %.critedge2, !llvm.loop !24

.critedge2:                                       ; preds = %69, %36, %.preheader, %Vec_PtrPush.exit.i
  ret void
}